(dp0
S'METTS MARK'
p1
(dp2
S'to_messages'
p3
I807
sS'deferral_payments'
p4
S'NaN'
p5
sS'expenses'
p6
I94299
sS'poi'
p7
I00
sS'deferred_income'
p8
g5
sS'long_term_incentive'
p9
g5
sS'restricted_stock_deferred'
p10
g5
sS'shared_receipt_with_poi'
p11
I702
sS'loan_advances'
p12
g5
sS'from_messages'
p13
I29
sS'other'
p14
I1740
sS'director_fees'
p15
g5
sS'new_features_3'
p16
I745402554
sS'new_features_2'
p17
I950850
sS'new_features_1'
p18
I585062
sS'bonus'
p19
I600000
sS'from_poi_to_this_person'
p20
I38
sS'from_this_person_to_poi'
p21
I1
sS'restricted_stock'
p22
I585062
sS'salary'
p23
I365788
sS'total_payments'
p24
I1061827
sS'exercised_stock_options'
p25
I0
ssS'BAXTER JOHN C'
p26
(dp27
g3
g5
sg4
I1295738
sg6
I11200
sg7
I00
sg8
I-1386055
sg9
I1586055
sg10
g5
sg11
I0
sg12
g5
sg13
g5
sg14
I2660303
sg15
g5
sg16
I0
sg17
I10890360
sg18
I17303802
sg19
I1200000
sg20
g5
sg21
g5
sg22
I3942714
sg23
I267102
sg24
I5634343
sg25
I6680544
ssS'ELLIOTT STEVEN'
p28
(dp29
g3
g5
sg4
g5
sg6
I78552
sg7
I00
sg8
I-400729
sg9
g5
sg10
g5
sg11
I0
sg12
g5
sg13
g5
sg14
I12961
sg15
g5
sg16
I0
sg17
I6849676
sg18
I11569079
sg19
I350000
sg20
g5
sg21
g5
sg22
I1788391
sg23
I170941
sg24
I211725
sg25
I4890344
ssS'CORDES WILLIAM R'
p30
(dp31
g3
I764
sg4
g5
sg6
g5
sg7
I00
sg8
g5
sg9
g5
sg10
g5
sg11
I58
sg12
g5
sg13
I12
sg14
g5
sg15
g5
sg16
I0
sg17
I1038185
sg18
I1690035
sg19
g5
sg20
I10
sg21
I0
sg22
I386335
sg23
I0
sg24
I0
sg25
I651850
ssS'HANNON KEVIN P'
p32
(dp33
g3
I1045
sg4
g5
sg6
I34039
sg7
I01
sg8
I-3117011
sg9
I1617011
sg10
g5
sg11
I1035
sg12
g5
sg13
I32
sg14
I11350
sg15
g5
sg16
I298785870
sg17
I6634358
sg18
I11929066
sg19
I1500000
sg20
I32
sg21
I21
sg22
I853064
sg23
I243293
sg24
I288682
sg25
I5538001
ssS'MORDAUNT KRISTINA M'
p34
(dp35
g3
g5
sg4
g5
sg6
I35018
sg7
I00
sg8
g5
sg9
g5
sg10
g5
sg11
I0
sg12
g5
sg13
g5
sg14
I1411
sg15
g5
sg16
I0
sg17
I475603
sg18
I208510
sg19
I325000
sg20
g5
sg21
g5
sg22
I208510
sg23
I267093
sg24
I628522
sg25
I0
ssS'MEYER ROCKFORD G'
p36
(dp37
g3
I232
sg4
I1848227
sg6
g5
sg7
I00
sg8
g5
sg9
g5
sg10
g5
sg11
I22
sg12
g5
sg13
I28
sg14
g5
sg15
g5
sg16
I40660994
sg17
I955873
sg18
I1449362
sg19
g5
sg20
I0
sg21
I0
sg22
I462384
sg23
I0
sg24
I1848227
sg25
I493489
ssS'MCMAHON JEFFREY'
p38
(dp39
g3
I2355
sg4
g5
sg6
I137108
sg7
I00
sg8
g5
sg9
I694862
sg10
g5
sg11
I2228
sg12
g5
sg13
I48
sg14
I297353
sg15
g5
sg16
I9134289788
sg17
I2033303
sg18
I2766909
sg19
I2600000
sg20
I58
sg21
I26
sg22
I558801
sg23
I370448
sg24
I4099771
sg25
I1104054
ssS'HORTON STANLEY C'
p40
(dp41
g3
I2350
sg4
I3131860
sg6
g5
sg7
I00
sg8
g5
sg9
g5
sg10
g5
sg11
I1074
sg12
g5
sg13
I1073
sg14
g5
sg15
g5
sg16
I3363617640
sg17
I7256648
sg18
I12467217
sg19
g5
sg20
I44
sg21
I15
sg22
I2046079
sg23
I0
sg24
I3131860
sg25
I5210569
ssS'PIPER GREGORY F'
p42
(dp43
g3
I1238
sg4
I1130036
sg6
I43057
sg7
I00
sg8
I-33333
sg9
g5
sg10
I-409554
sg11
I742
sg12
g5
sg13
I222
sg14
I778
sg15
g5
sg16
I1289320718
sg17
I1077381
sg18
I1760580
sg19
I400000
sg20
I61
sg21
I48
sg22
I409554
sg23
I197091
sg24
I1737629
sg25
I880290
ssS'HUMPHREY GENE E'
p44
(dp45
g3
I128
sg4
I2964506
sg6
I4994
sg7
I00
sg8
g5
sg9
g5
sg10
g5
sg11
I119
sg12
g5
sg13
I17
sg14
g5
sg15
g5
sg16
I368926656
sg17
I2413492
sg18
I4565536
sg19
g5
sg20
I10
sg21
I17
sg22
g5
sg23
I130724
sg24
I3100224
sg25
I2282768
ssS'UMANOFF ADAM S'
p46
(dp47
g3
I111
sg4
g5
sg6
I53122
sg7
I00
sg8
g5
sg9
g5
sg10
g5
sg11
I41
sg12
g5
sg13
I18
sg14
g5
sg15
g5
sg16
I46348901
sg17
I288589
sg18
I0
sg19
I788750
sg20
I12
sg21
I0
sg22
g5
sg23
I288589
sg24
I1130461
sg25
I0
ssS'BLACHMAN JEREMY M'
p48
(dp49
g3
I2475
sg4
g5
sg6
I84208
sg7
I00
sg8
g5
sg9
I831809
sg10
g5
sg11
I2326
sg12
g5
sg13
I14
sg14
I272
sg15
g5
sg16
I4686506210
sg17
I1202900
sg18
I1719667
sg19
I850000
sg20
I25
sg21
I2
sg22
I189041
sg23
I248546
sg24
I2014835
sg25
I765313
ssS'SUNDE MARTIN'
p50
(dp51
g3
I2647
sg4
g5
sg6
g5
sg7
I00
sg8
g5
sg9
I476451
sg10
g5
sg11
I2565
sg12
g5
sg13
I38
sg14
I111122
sg15
g5
sg16
I3963076335
sg17
I956406
sg18
I698920
sg19
I700000
sg20
I37
sg21
I13
sg22
I698920
sg23
I257486
sg24
I1545059
sg25
I0
ssS'GIBBS DANA R'
p52
(dp53
g3
I169
sg4
I504610
sg6
g5
sg7
I00
sg8
g5
sg9
I461912
sg10
g5
sg11
I23
sg12
g5
sg13
I12
sg14
g5
sg15
g5
sg16
I22230006
sg17
I2218275
sg18
I4436550
sg19
g5
sg20
I0
sg21
I0
sg22
g5
sg23
I0
sg24
I966522
sg25
I2218275
ssS'LOWRY CHARLES P'
p54
(dp55
g3
g5
sg4
g5
sg6
g5
sg7
I00
sg8
g5
sg9
g5
sg10
I-153686
sg11
I0
sg12
g5
sg13
g5
sg14
g5
sg15
g5
sg16
I0
sg17
I372205
sg18
I744410
sg19
g5
sg20
g5
sg21
g5
sg22
I153686
sg23
I0
sg24
I0
sg25
I372205
ssS'COLWELL WESLEY'
p56
(dp57
g3
I1758
sg4
I27610
sg6
I16514
sg7
I01
sg8
I-144062
sg9
g5
sg10
g5
sg11
I1132
sg12
g5
sg13
I40
sg14
I101740
sg15
g5
sg16
I1687069408
sg17
I986784
sg18
I698242
sg19
I1200000
sg20
I240
sg21
I11
sg22
I698242
sg23
I288542
sg24
I1490344
sg25
I0
ssS'MULLER MARK S'
p58
(dp59
g3
I136
sg4
I842924
sg6
g5
sg7
I00
sg8
I-719000
sg9
I1725545
sg10
g5
sg11
I114
sg12
g5
sg13
I16
sg14
I947
sg15
g5
sg16
I365035980
sg17
I1668502
sg18
I2473168
sg19
I1100000
sg20
I12
sg21
I0
sg22
I360528
sg23
I251654
sg24
I3202070
sg25
I1056320
ssS'JACKSON CHARLENE R'
p60
(dp61
g3
I258
sg4
g5
sg6
I10181
sg7
I00
sg8
g5
sg9
g5
sg10
g5
sg11
I117
sg12
g5
sg13
I56
sg14
I2435
sg15
g5
sg16
I64487358
sg17
I1014293
sg18
I910798
sg19
I250000
sg20
I25
sg21
I19
sg22
I540672
sg23
I288558
sg24
I551174
sg25
I185063
ssS'WESTFAHL RICHARD K'
p62
(dp63
g3
g5
sg4
g5
sg6
I51870
sg7
I00
sg8
I-10800
sg9
I256191
sg10
g5
sg11
I0
sg12
g5
sg13
g5
sg14
I401130
sg15
g5
sg16
I0
sg17
I448674
sg18
I384930
sg19
g5
sg20
g5
sg21
g5
sg22
I384930
sg23
I63744
sg24
I762135
sg25
I0
ssS'WALTERS GARETH W'
p64
(dp65
g3
g5
sg4
I53625
sg6
I33785
sg7
I00
sg8
g5
sg9
g5
sg10
g5
sg11
I0
sg12
g5
sg13
g5
sg14
g5
sg15
g5
sg16
I0
sg17
I1030329
sg18
I2060658
sg19
g5
sg20
g5
sg21
g5
sg22
g5
sg23
I0
sg24
I87410
sg25
I1030329
ssS'WALLS JR ROBERT H'
p66
(dp67
g3
I671
sg4
g5
sg6
I50936
sg7
I00
sg8
g5
sg9
I540751
sg10
g5
sg11
I215
sg12
g5
sg13
I146
sg14
I2
sg15
g5
sg16
I386737700
sg17
I6256088
sg18
I10245541
sg19
I850000
sg20
I17
sg21
I0
sg22
I1552453
sg23
I357091
sg24
I1798780
sg25
I4346544
ssS'KITCHEN LOUISE'
p68
(dp69
g3
I8305
sg4
g5
sg6
I5774
sg7
I00
sg8
g5
sg9
g5
sg10
g5
sg11
I3669
sg12
g5
sg13
I1728
sg14
I93925
sg15
g5
sg16
I12735616329
sg17
I818585
sg18
I628185
sg19
I3100000
sg20
I251
sg21
I194
sg22
I466101
sg23
I271442
sg24
I3471141
sg25
I81042
ssS'CHAN RONNIE'
p70
(dp71
g3
g5
sg4
g5
sg6
g5
sg7
I00
sg8
I-98784
sg9
g5
sg10
I-32460
sg11
I0
sg12
g5
sg13
g5
sg14
g5
sg15
I98784
sg16
I0
sg17
I0
sg18
I0
sg19
g5
sg20
g5
sg21
g5
sg22
I32460
sg23
I0
sg24
I0
sg25
I0
ssS'BELFER ROBERT'
p72
(dp73
g3
g5
sg4
I-102500
sg6
g5
sg7
I00
sg8
g5
sg9
g5
sg10
I44093
sg11
I0
sg12
g5
sg13
g5
sg14
g5
sg15
I3285
sg16
I0
sg17
I-44093
sg18
I-40808
sg19
g5
sg20
g5
sg21
g5
sg22
g5
sg23
I0
sg24
I102500
sg25
I3285
ssS'SHANKMAN JEFFREY A'
p74
(dp75
g3
I3221
sg4
g5
sg6
I178979
sg7
I00
sg8
g5
sg9
I554422
sg10
g5
sg11
I1730
sg12
g5
sg13
I2681
sg14
I1191
sg15
g5
sg16
I5256954460
sg17
I2376145
sg18
I3513933
sg19
I2000000
sg20
I94
sg21
I83
sg22
I630137
sg23
I304110
sg24
I3038702
sg25
I1441898
ssS'WODRASKA JOHN'
p76
(dp77
g3
g5
sg4
g5
sg6
g5
sg7
I00
sg8
g5
sg9
g5
sg10
g5
sg11
I0
sg12
g5
sg13
g5
sg14
I189583
sg15
g5
sg16
I0
sg17
I0
sg18
I0
sg19
g5
sg20
g5
sg21
g5
sg22
g5
sg23
I0
sg24
I189583
sg25
I0
ssS'BERGSIEKER RICHARD P'
p78
(dp79
g3
I383
sg4
g5
sg6
I59175
sg7
I00
sg8
I-485813
sg9
I180250
sg10
g5
sg11
I233
sg12
g5
sg13
I59
sg14
I427316
sg15
g5
sg16
I144192050
sg17
I847171
sg18
I659249
sg19
I250000
sg20
I4
sg21
I0
sg22
I659249
sg23
I187922
sg24
I618850
sg25
I0
ssS'URQUHART JOHN A'
p80
(dp81
g3
g5
sg4
g5
sg6
I228656
sg7
I00
sg8
I-36666
sg9
g5
sg10
g5
sg11
I0
sg12
g5
sg13
g5
sg14
g5
sg15
I36666
sg16
I0
sg17
I0
sg18
I0
sg19
g5
sg20
g5
sg21
g5
sg22
g5
sg23
I0
sg24
I228656
sg25
I0
ssS'BIBI PHILIPPE A'
p82
(dp83
g3
I1607
sg4
g5
sg6
I38559
sg7
I00
sg8
g5
sg9
I369721
sg10
g5
sg11
I1336
sg12
g5
sg13
I40
sg14
I425688
sg15
g5
sg16
I2735584248
sg17
I2057441
sg18
I3309550
sg19
I1000000
sg20
I23
sg21
I8
sg22
I378082
sg23
I213625
sg24
I2047593
sg25
I1465734
ssS'RIEKER PAULA H'
p84
(dp85
g3
I1328
sg4
I214678
sg6
I33271
sg7
I01
sg8
I-100000
sg9
g5
sg10
g5
sg11
I1258
sg12
g5
sg13
I82
sg14
I1950
sg15
g5
sg16
I1382667800
sg17
I2168088
sg18
I3554125
sg19
I700000
sg20
I35
sg21
I48
sg22
I283649
sg23
I249201
sg24
I1099100
sg25
I1635238
ssS'WHALEY DAVID A'
p86
(dp87
g3
g5
sg4
g5
sg6
g5
sg7
I00
sg8
g5
sg9
g5
sg10
g5
sg11
I0
sg12
g5
sg13
g5
sg14
g5
sg15
g5
sg16
I0
sg17
I98718
sg18
I197436
sg19
g5
sg20
g5
sg21
g5
sg22
g5
sg23
I0
sg24
I0
sg25
I98718
ssS'BECK SALLY W'
p88
(dp89
g3
I7315
sg4
g5
sg6
I37172
sg7
I00
sg8
g5
sg9
g5
sg10
g5
sg11
I2639
sg12
g5
sg13
I4343
sg14
I566
sg15
g5
sg16
I2557370452
sg17
I357357
sg18
I126027
sg19
I700000
sg20
I144
sg21
I386
sg22
I126027
sg23
I231330
sg24
I969068
sg25
I0
ssS'HAUG DAVID L'
p90
(dp91
g3
I573
sg4
g5
sg6
I475
sg7
I00
sg8
g5
sg9
g5
sg10
g5
sg11
I471
sg12
g5
sg13
I19
sg14
g5
sg15
g5
sg16
I223725
sg17
I2217299
sg18
I2217299
sg19
g5
sg20
I4
sg21
I7
sg22
I2217299
sg23
I0
sg24
I475
sg25
I0
ssS'ECHOLS JOHN B'
p92
(dp93
g3
g5
sg4
g5
sg6
I21530
sg7
I00
sg8
g5
sg9
I2234774
sg10
g5
sg11
I0
sg12
g5
sg13
g5
sg14
I53775
sg15
g5
sg16
I0
sg17
I1191186
sg18
I1610379
sg19
I200000
sg20
g5
sg21
g5
sg22
I407503
sg23
I182245
sg24
I2692324
sg25
I601438
ssS'MENDELSOHN JOHN'
p94
(dp95
g3
g5
sg4
g5
sg6
I148
sg7
I00
sg8
I-103750
sg9
g5
sg10
g5
sg11
I0
sg12
g5
sg13
g5
sg14
g5
sg15
I103750
sg16
I0
sg17
I0
sg18
I0
sg19
g5
sg20
g5
sg21
g5
sg22
g5
sg23
I0
sg24
I148
sg25
I0
ssS'HICKERSON GARY J'
p96
(dp97
g3
I1320
sg4
g5
sg6
I98849
sg7
I00
sg8
g5
sg9
I69223
sg10
g5
sg11
I900
sg12
g5
sg13
I27
sg14
I1936
sg15
g5
sg16
I1873616400
sg17
I652884
sg18
I441096
sg19
I1700000
sg20
I40
sg21
I1
sg22
I441096
sg23
I211788
sg24
I2081796
sg25
I0
ssS'CLINE KENNETH W'
p98
(dp99
g3
g5
sg4
g5
sg6
g5
sg7
I00
sg8
g5
sg9
g5
sg10
I-472568
sg11
I0
sg12
g5
sg13
g5
sg14
g5
sg15
g5
sg16
I0
sg17
I189518
sg18
I189518
sg19
g5
sg20
g5
sg21
g5
sg22
I662086
sg23
I0
sg24
I0
sg25
I0
ssS'LEWIS RICHARD'
p100
(dp101
g3
I952
sg4
g5
sg6
g5
sg7
I00
sg8
g5
sg9
g5
sg10
g5
sg11
I739
sg12
g5
sg13
I26
sg14
g5
sg15
g5
sg16
I0
sg17
I850477
sg18
I1700954
sg19
g5
sg20
I10
sg21
I0
sg22
g5
sg23
I0
sg24
I0
sg25
I850477
ssS'HAYES ROBERT E'
p102
(dp103
g3
I504
sg4
I7961
sg6
g5
sg7
I00
sg8
g5
sg9
g5
sg10
g5
sg11
I50
sg12
g5
sg13
I12
sg14
g5
sg15
g5
sg16
I398050
sg17
I151418
sg18
I151418
sg19
g5
sg20
I16
sg21
I0
sg22
I151418
sg23
I0
sg24
I7961
sg25
I0
ssS'MCCARTY DANNY J'
p104
(dp105
g3
I1433
sg4
g5
sg6
g5
sg7
I00
sg8
g5
sg9
g5
sg10
g5
sg11
I508
sg12
g5
sg13
I215
sg14
g5
sg15
g5
sg16
I0
sg17
I758931
sg18
I1423306
sg19
g5
sg20
I25
sg21
I2
sg22
I94556
sg23
I0
sg24
I0
sg25
I664375
ssS'KOPPER MICHAEL J'
p106
(dp107
g3
g5
sg4
g5
sg6
I118134
sg7
I01
sg8
g5
sg9
I602671
sg10
g5
sg11
I0
sg12
g5
sg13
g5
sg14
I907502
sg15
g5
sg16
I0
sg17
I1209337
sg18
I985032
sg19
I800000
sg20
g5
sg21
g5
sg22
I985032
sg23
I224305
sg24
I2652612
sg25
I0
ssS'LEFF DANIEL P'
p108
(dp109
g3
I2822
sg4
g5
sg6
g5
sg7
I00
sg8
g5
sg9
I1387399
sg10
g5
sg11
I2672
sg12
g5
sg13
I63
sg14
I3083
sg15
g5
sg16
I7118817216
sg17
I634274
sg18
I360528
sg19
I1000000
sg20
I67
sg21
I14
sg22
I360528
sg23
I273746
sg24
I2664228
sg25
I0
ssS'LAVORATO JOHN J'
p110
(dp111
g3
I7259
sg4
g5
sg6
I49537
sg7
I00
sg8
g5
sg9
I2035380
sg10
g5
sg11
I3962
sg12
g5
sg13
I2585
sg14
I1552
sg15
g5
sg16
I41306849234
sg17
I5506432
sg18
I9326139
sg19
I8000000
sg20
I528
sg21
I411
sg22
I1008149
sg23
I339288
sg24
I10425757
sg25
I4158995
ssS'BERBERIAN DAVID'
p112
(dp113
g3
g5
sg4
g5
sg6
I11892
sg7
I00
sg8
g5
sg9
g5
sg10
g5
sg11
I0
sg12
g5
sg13
g5
sg14
g5
sg15
g5
sg16
I0
sg17
I2710198
sg18
I4118012
sg19
g5
sg20
g5
sg21
g5
sg22
I869220
sg23
I216582
sg24
I228474
sg25
I1624396
ssS'DETMERING TIMOTHY J'
p114
(dp115
g3
g5
sg4
I875307
sg6
I52255
sg7
I00
sg8
I-775241
sg9
I415657
sg10
I-315068
sg11
I0
sg12
g5
sg13
g5
sg14
I1105
sg15
g5
sg16
I0
sg17
I2238365
sg18
I4055730
sg19
I425000
sg20
g5
sg21
g5
sg22
I315068
sg23
I210500
sg24
I1204583
sg25
I2027865
ssS'WAKEHAM JOHN'
p116
(dp117
g3
g5
sg4
g5
sg6
I103773
sg7
I00
sg8
g5
sg9
g5
sg10
g5
sg11
I0
sg12
g5
sg13
g5
sg14
g5
sg15
I109298
sg16
I0
sg17
I0
sg18
I0
sg19
g5
sg20
g5
sg21
g5
sg22
g5
sg23
I0
sg24
I213071
sg25
I0
ssS'POWERS WILLIAM'
p118
(dp119
g3
I653
sg4
g5
sg6
g5
sg7
I00
sg8
I-17500
sg9
g5
sg10
g5
sg11
I12
sg12
g5
sg13
I26
sg14
g5
sg15
I17500
sg16
I0
sg17
I0
sg18
I0
sg19
g5
sg20
I0
sg21
I0
sg22
g5
sg23
I0
sg24
I0
sg25
I0
ssS'GOLD JOSEPH'
p120
(dp121
g3
g5
sg4
g5
sg6
g5
sg7
I00
sg8
g5
sg9
I304805
sg10
g5
sg11
I0
sg12
g5
sg13
g5
sg14
I819288
sg15
g5
sg16
I0
sg17
I1150491
sg18
I1314126
sg19
I750000
sg20
g5
sg21
g5
sg22
I441096
sg23
I272880
sg24
I2146973
sg25
I436515
ssS'BANNANTINE JAMES M'
p122
(dp123
g3
I566
sg4
g5
sg6
I56301
sg7
I00
sg8
I-5104
sg9
g5
sg10
I-560222
sg11
I465
sg12
g5
sg13
I29
sg14
I864523
sg15
g5
sg16
I426031605
sg17
I5243964
sg18
I9289644
sg19
g5
sg20
I39
sg21
I0
sg22
I1757552
sg23
I477
sg24
I916197
sg25
I4046157
ssS'DUNCAN JOHN H'
p124
(dp125
g3
g5
sg4
g5
sg6
g5
sg7
I00
sg8
I-25000
sg9
g5
sg10
g5
sg11
I0
sg12
g5
sg13
g5
sg14
g5
sg15
I102492
sg16
I0
sg17
I371750
sg18
I743500
sg19
g5
sg20
g5
sg21
g5
sg22
g5
sg23
I0
sg24
I77492
sg25
I371750
ssS'SHAPIRO RICHARD S'
p126
(dp127
g3
I15149
sg4
g5
sg6
I137767
sg7
I00
sg8
g5
sg9
g5
sg10
g5
sg11
I4527
sg12
g5
sg13
I1215
sg14
I705
sg15
g5
sg16
I4787519796
sg17
I1256077
sg18
I1594838
sg19
I650000
sg20
I74
sg21
I65
sg22
I379164
sg23
I269076
sg24
I1057548
sg25
I607837
ssS'SHERRIFF JOHN R'
p128
(dp129
g3
I3187
sg4
g5
sg6
g5
sg7
I00
sg8
g5
sg9
I554422
sg10
g5
sg11
I2103
sg12
g5
sg13
I92
sg14
I1852186
sg15
g5
sg16
I9117320964
sg17
I3557762
sg18
I4964540
sg19
I1500000
sg20
I28
sg21
I23
sg22
I1293424
sg23
I428780
sg24
I4335388
sg25
I1835558
ssS'SHELBY REX'
p130
(dp131
g3
I225
sg4
g5
sg6
I22884
sg7
I01
sg8
I-4167
sg9
g5
sg10
g5
sg11
I91
sg12
g5
sg13
I39
sg14
I1573324
sg15
g5
sg16
I182353535
sg17
I2705460
sg18
I4118012
sg19
I200000
sg20
I13
sg21
I14
sg22
I869220
sg23
I211844
sg24
I2003885
sg25
I1624396
ssS'LEMAISTRE CHARLES'
p132
(dp133
g3
g5
sg4
g5
sg6
g5
sg7
I00
sg8
I-25000
sg9
g5
sg10
g5
sg11
I0
sg12
g5
sg13
g5
sg14
g5
sg15
I112492
sg16
I0
sg17
I412878
sg18
I825756
sg19
g5
sg20
g5
sg21
g5
sg22
g5
sg23
I0
sg24
I87492
sg25
I412878
ssS'DEFFNER JOSEPH M'
p134
(dp135
g3
I714
sg4
g5
sg6
I41626
sg7
I00
sg8
g5
sg9
I335349
sg10
g5
sg11
I552
sg12
g5
sg13
I74
sg14
I25553
sg15
g5
sg16
I667174248
sg17
I365332
sg18
I176589
sg19
I600000
sg20
I115
sg21
I4
sg22
I141833
sg23
I206121
sg24
I1208649
sg25
I17378
ssS'KISHKILL JOSEPH G'
p136
(dp137
g3
g5
sg4
g5
sg6
I116335
sg7
I00
sg8
I-51042
sg9
g5
sg10
g5
sg11
I0
sg12
g5
sg13
g5
sg14
I465357
sg15
g5
sg16
I0
sg17
I1208592
sg18
I1034346
sg19
g5
sg20
g5
sg21
g5
sg22
I1034346
sg23
I174246
sg24
I704896
sg25
I0
ssS'WHALLEY LAWRENCE G'
p138
(dp139
g3
I6019
sg4
g5
sg6
I57838
sg7
I00
sg8
g5
sg9
I808346
sg10
g5
sg11
I3920
sg12
g5
sg13
I556
sg14
I301026
sg15
g5
sg16
I18336090080
sg17
I6589501
sg18
I9362097
sg19
I3000000
sg20
I186
sg21
I24
sg22
I2796177
sg23
I510364
sg24
I4677574
sg25
I3282960
ssS'MCCONNELL MICHAEL S'
p140
(dp141
g3
I3329
sg4
g5
sg6
I81364
sg7
I00
sg8
g5
sg9
I554422
sg10
g5
sg11
I2189
sg12
g5
sg13
I2742
sg14
I540
sg15
g5
sg16
I4599885796
sg17
I3466317
sg18
I4724289
sg19
I1100000
sg20
I92
sg21
I194
sg22
I1478269
sg23
I365038
sg24
I2101364
sg25
I1623010
ssS'PIRO JIM'
p142
(dp143
g3
I58
sg4
g5
sg6
g5
sg7
I00
sg8
g5
sg9
g5
sg10
g5
sg11
I3
sg12
g5
sg13
I16
sg14
g5
sg15
g5
sg16
I0
sg17
I47304
sg18
I47304
sg19
g5
sg20
I0
sg21
I1
sg22
I47304
sg23
I0
sg24
I0
sg25
I0
ssS'DELAINEY DAVID W'
p144
(dp145
g3
I3093
sg4
g5
sg6
I86174
sg7
I01
sg8
g5
sg9
I1294981
sg10
g5
sg11
I2097
sg12
g5
sg13
I3069
sg14
I1661
sg15
g5
sg16
I9956511963
sg17
I3979424
sg18
I5905374
sg19
I3000000
sg20
I66
sg21
I609
sg22
I1323148
sg23
I365163
sg24
I4747979
sg25
I2291113
ssS'SULLIVAN-SHAKLOVITZ COLLEEN'
p146
(dp147
g3
g5
sg4
I181993
sg6
g5
sg7
I00
sg8
g5
sg9
I554422
sg10
g5
sg11
I0
sg12
g5
sg13
g5
sg14
I162
sg15
g5
sg16
I0
sg17
I1525154
sg18
I2724750
sg19
I100000
sg20
g5
sg21
g5
sg22
g5
sg23
I162779
sg24
I999356
sg25
I1362375
ssS'WROBEL BRUCE'
p148
(dp149
g3
g5
sg4
g5
sg6
g5
sg7
I00
sg8
g5
sg9
g5
sg10
g5
sg11
I0
sg12
g5
sg13
g5
sg14
g5
sg15
g5
sg16
I0
sg17
I139130
sg18
I278260
sg19
g5
sg20
g5
sg21
g5
sg22
g5
sg23
I0
sg24
I0
sg25
I139130
ssS'LINDHOLM TOD A'
p150
(dp151
g3
g5
sg4
I204075
sg6
I57727
sg7
I00
sg8
g5
sg9
I175000
sg10
g5
sg11
I0
sg12
g5
sg13
g5
sg14
I2630
sg15
g5
sg16
I0
sg17
I3300665
sg18
I5613569
sg19
I200000
sg20
g5
sg21
g5
sg22
I514847
sg23
I236457
sg24
I875889
sg25
I2549361
ssS'MEYER JEROME J'
p152
(dp153
g3
g5
sg4
g5
sg6
I2151
sg7
I00
sg8
I-38346
sg9
g5
sg10
g5
sg11
I0
sg12
g5
sg13
g5
sg14
g5
sg15
I38346
sg16
I0
sg17
I0
sg18
I0
sg19
g5
sg20
g5
sg21
g5
sg22
g5
sg23
I0
sg24
I2151
sg25
I0
ssS'LAY KENNETH L'
p154
(dp155
g3
I4273
sg4
I202911
sg6
I99832
sg7
I01
sg8
I-300000
sg9
I3600000
sg10
g5
sg11
I2411
sg12
I81525000
sg13
I36
sg14
I10359729
sg15
g5
sg16
I249682660923
sg17
I50182399
sg18
I83458462
sg19
I7000000
sg20
I123
sg21
I16
sg22
I14761694
sg23
I1072321
sg24
I103559793
sg25
I34348384
ssS'BUTTS ROBERT H'
p156
(dp157
g3
g5
sg4
g5
sg6
I9410
sg7
I00
sg8
I-75000
sg9
I175000
sg10
g5
sg11
I0
sg12
g5
sg13
g5
sg14
I150656
sg15
g5
sg16
I0
sg17
I679135
sg18
I417619
sg19
I750000
sg20
g5
sg21
g5
sg22
I417619
sg23
I261516
sg24
I1271582
sg25
I0
ssS'OLSON CINDY K'
p158
(dp159
g3
I1184
sg4
I77716
sg6
I63791
sg7
I00
sg8
g5
sg9
I100000
sg10
g5
sg11
I856
sg12
g5
sg13
I52
sg14
I972
sg15
g5
sg16
I1131252792
sg17
I2935841
sg18
I4243797
sg19
I750000
sg20
I20
sg21
I15
sg22
I969729
sg23
I329078
sg24
I1321557
sg25
I1637034
ssS'MCDONALD REBECCA'
p160
(dp161
g3
I894
sg4
g5
sg6
g5
sg7
I00
sg8
g5
sg9
g5
sg10
g5
sg11
I720
sg12
g5
sg13
I13
sg14
g5
sg15
g5
sg16
I0
sg17
I1691366
sg18
I2448667
sg19
g5
sg20
I54
sg21
I1
sg22
I934065
sg23
I0
sg24
I0
sg25
I757301
ssS'CUMBERLAND MICHAEL S'
p162
(dp163
g3
g5
sg4
g5
sg6
I22344
sg7
I00
sg8
g5
sg9
I275000
sg10
g5
sg11
I0
sg12
g5
sg13
g5
sg14
I713
sg15
g5
sg16
I0
sg17
I392839
sg18
I207940
sg19
I325000
sg20
g5
sg21
g5
sg22
I207940
sg23
I184899
sg24
I807956
sg25
I0
ssS'GAHN ROBERT S'
p164
(dp165
g3
g5
sg4
I73122
sg6
I50080
sg7
I00
sg8
I-1042
sg9
g5
sg10
g5
sg11
I0
sg12
g5
sg13
g5
sg14
I76547
sg15
g5
sg16
I0
sg17
I510615
sg18
I401844
sg19
I509870
sg20
g5
sg21
g5
sg22
I235370
sg23
I192008
sg24
I900585
sg25
I83237
ssS'MCCLELLAN GEORGE'
p166
(dp167
g3
I1744
sg4
g5
sg6
I228763
sg7
I00
sg8
I-125000
sg9
g5
sg10
g5
sg11
I1469
sg12
g5
sg13
I49
sg14
I51587
sg15
g5
sg16
I1937262847
sg17
I1211274
sg18
I1454626
sg19
I900000
sg20
I52
sg21
I0
sg22
I441096
sg23
I263413
sg24
I1318763
sg25
I506765
ssS'HERMANN ROBERT J'
p168
(dp169
g3
g5
sg4
g5
sg6
I48357
sg7
I00
sg8
I-280000
sg9
I150000
sg10
g5
sg11
I0
sg12
g5
sg13
g5
sg14
I416441
sg15
g5
sg16
I0
sg17
I930795
sg18
I855632
sg19
I700000
sg20
g5
sg21
g5
sg22
I480632
sg23
I262663
sg24
I1297461
sg25
I187500
ssS'SCRIMSHAW MATTHEW'
p170
(dp171
g3
g5
sg4
g5
sg6
g5
sg7
I00
sg8
g5
sg9
g5
sg10
g5
sg11
I0
sg12
g5
sg13
g5
sg14
g5
sg15
g5
sg16
I0
sg17
I759557
sg18
I1519114
sg19
g5
sg20
g5
sg21
g5
sg22
g5
sg23
I0
sg24
I0
sg25
I759557
ssS'GATHMANN WILLIAM D'
p172
(dp173
g3
g5
sg4
g5
sg6
g5
sg7
I00
sg8
g5
sg9
g5
sg10
I-72419
sg11
I0
sg12
g5
sg13
g5
sg14
g5
sg15
g5
sg16
I0
sg17
I1945360
sg18
I3699126
sg19
g5
sg20
g5
sg21
g5
sg22
I264013
sg23
I0
sg24
I0
sg25
I1753766
ssS'HAEDICKE MARK E'
p174
(dp175
g3
I4009
sg4
I2157527
sg6
I76169
sg7
I00
sg8
I-934484
sg9
I983346
sg10
I-329825
sg11
I1847
sg12
g5
sg13
I1941
sg14
I52382
sg15
g5
sg16
I7127693055
sg17
I1177219
sg18
I1411844
sg19
I1150000
sg20
I180
sg21
I61
sg22
I524169
sg23
I374125
sg24
I3859065
sg25
I608750
ssS'BOWEN JR RAYMOND M'
p176
(dp177
g3
I1858
sg4
g5
sg6
I65907
sg7
I01
sg8
I-833
sg9
I974293
sg10
g5
sg11
I1593
sg12
g5
sg13
I27
sg14
I1621
sg15
g5
sg16
I4252655277
sg17
I530656
sg18
I252055
sg19
I1350000
sg20
I140
sg21
I15
sg22
I252055
sg23
I278601
sg24
I2669589
sg25
I0
ssS'GILLIS JOHN'
p178
(dp179
g3
g5
sg4
g5
sg6
g5
sg7
I00
sg8
g5
sg9
g5
sg10
g5
sg11
I0
sg12
g5
sg13
g5
sg14
g5
sg15
g5
sg16
I0
sg17
I85641
sg18
I95444
sg19
g5
sg20
g5
sg21
g5
sg22
I75838
sg23
I0
sg24
I0
sg25
I9803
ssS'FITZGERALD JAY L'
p180
(dp181
g3
I936
sg4
g5
sg6
I23870
sg7
I00
sg8
g5
sg9
I556416
sg10
g5
sg11
I723
sg12
g5
sg13
I16
sg14
I285414
sg15
g5
sg16
I1022941611
sg17
I1820393
sg18
I2285697
sg19
I350000
sg20
I1
sg21
I8
sg22
I956775
sg23
I199157
sg24
I1414857
sg25
I664461
ssS'MORAN MICHAEL P'
p182
(dp183
g3
I672
sg4
g5
sg6
g5
sg7
I00
sg8
g5
sg9
g5
sg10
g5
sg11
I127
sg12
g5
sg13
I19
sg14
g5
sg15
g5
sg16
I0
sg17
I221141
sg18
I280680
sg19
g5
sg20
I0
sg21
I0
sg22
I161602
sg23
I0
sg24
I0
sg25
I59539
ssS'REDMOND BRIAN L'
p184
(dp185
g3
I1671
sg4
g5
sg6
I14689
sg7
I00
sg8
g5
sg9
g5
sg10
g5
sg11
I1063
sg12
g5
sg13
I221
sg14
g5
sg15
g5
sg16
I118555327
sg17
I7987164
sg18
I15399363
sg19
g5
sg20
I204
sg21
I49
sg22
I381285
sg23
I96840
sg24
I111529
sg25
I7509039
ssS'BAZELIDES PHILIP J'
p186
(dp187
g3
g5
sg4
I684694
sg6
g5
sg7
I00
sg8
g5
sg9
I93750
sg10
g5
sg11
I0
sg12
g5
sg13
g5
sg14
I874
sg15
g5
sg16
I0
sg17
I1680459
sg18
I3199282
sg19
g5
sg20
g5
sg21
g5
sg22
g5
sg23
I80818
sg24
I860136
sg25
I1599641
ssS'BELDEN TIMOTHY N'
p188
(dp189
g3
I7991
sg4
I2144013
sg6
I17355
sg7
I01
sg8
I-2334434
sg9
g5
sg10
g5
sg11
I5521
sg12
g5
sg13
I484
sg14
I210698
sg15
g5
sg16
I30374499230
sg17
I1324704
sg18
I2063841
sg19
I5249999
sg20
I228
sg21
I108
sg22
I157569
sg23
I213999
sg24
I5501630
sg25
I953136
ssS'DURAN WILLIAM D'
p190
(dp191
g3
I904
sg4
g5
sg6
I25785
sg7
I00
sg8
g5
sg9
I1105218
sg10
g5
sg11
I599
sg12
g5
sg13
I12
sg14
I1568
sg15
g5
sg16
I1253864537
sg17
I1851602
sg18
I3092779
sg19
I750000
sg20
I106
sg21
I3
sg22
I189041
sg23
I210692
sg24
I2093263
sg25
I1451869
ssS'THORN TERENCE H'
p192
(dp193
g3
I266
sg4
I16586
sg6
I46145
sg7
I00
sg8
g5
sg9
I200000
sg10
g5
sg11
I73
sg12
g5
sg13
I41
sg14
I426629
sg15
g5
sg16
I66536069
sg17
I5039889
sg18
I9270272
sg19
g5
sg20
I0
sg21
I0
sg22
I365320
sg23
I222093
sg24
I911453
sg25
I4452476
ssS'FASTOW ANDREW S'
p194
(dp195
g3
g5
sg4
g5
sg6
I55921
sg7
I01
sg8
I-1386055
sg9
I1736055
sg10
g5
sg11
I0
sg12
g5
sg13
g5
sg14
I277464
sg15
g5
sg16
I0
sg17
I2235110
sg18
I1794412
sg19
I1300000
sg20
g5
sg21
g5
sg22
I1794412
sg23
I440698
sg24
I2424083
sg25
I0
ssS'FOY JOE'
p196
(dp197
g3
I57
sg4
I181755
sg6
g5
sg7
I00
sg8
g5
sg9
g5
sg10
g5
sg11
I2
sg12
g5
sg13
I13
sg14
g5
sg15
g5
sg16
I363510
sg17
I343434
sg18
I686868
sg19
g5
sg20
I0
sg21
I0
sg22
g5
sg23
I0
sg24
I181755
sg25
I343434
ssS'CALGER CHRISTOPHER F'
p198
(dp199
g3
I2598
sg4
g5
sg6
I35818
sg7
I01
sg8
I-262500
sg9
I375304
sg10
g5
sg11
I2188
sg12
g5
sg13
I144
sg14
I486
sg15
g5
sg16
I3586781836
sg17
I366216
sg18
I126027
sg19
I1250000
sg20
I199
sg21
I25
sg22
I126027
sg23
I240189
sg24
I1639297
sg25
I0
ssS'RICE KENNETH D'
p200
(dp201
g3
I905
sg4
g5
sg6
I46950
sg7
I01
sg8
I-3504386
sg9
I1617011
sg10
g5
sg11
I864
sg12
g5
sg13
I18
sg14
I174839
sg15
g5
sg16
I436363200
sg17
I22963175
sg18
I42336714
sg19
I1750000
sg20
I42
sg21
I4
sg22
I2748364
sg23
I420636
sg24
I505050
sg25
I19794175
ssS'KAMINSKI WINCENTY J'
p202
(dp203
g3
I4607
sg4
g5
sg6
I83585
sg7
I00
sg8
g5
sg9
I323466
sg10
g5
sg11
I583
sg12
g5
sg13
I14368
sg14
I4669
sg15
g5
sg16
I633616643
sg17
I1251138
sg18
I1826047
sg19
I400000
sg20
I41
sg21
I171
sg22
I126027
sg23
I275101
sg24
I1086821
sg25
I850010
ssS'LOCKHART EUGENE E'
p204
(dp205
g3
g5
sg4
g5
sg6
g5
sg7
I00
sg8
g5
sg9
g5
sg10
g5
sg11
I0
sg12
g5
sg13
g5
sg14
g5
sg15
g5
sg16
I0
sg17
I0
sg18
I0
sg19
g5
sg20
g5
sg21
g5
sg22
g5
sg23
I0
sg24
I0
sg25
I0
ssS'COX DAVID'
p206
(dp207
g3
I102
sg4
g5
sg6
I27861
sg7
I00
sg8
I-41250
sg9
g5
sg10
g5
sg11
I71
sg12
g5
sg13
I33
sg14
I494
sg15
g5
sg16
I78198903
sg17
I809921
sg18
I613184
sg19
I800000
sg20
I0
sg21
I4
sg22
I378082
sg23
I314288
sg24
I1101393
sg25
I117551
ssS'OVERDYKE JR JERE C'
p208
(dp209
g3
g5
sg4
g5
sg6
I18834
sg7
I00
sg8
g5
sg9
I135836
sg10
g5
sg11
I0
sg12
g5
sg13
g5
sg14
I176
sg15
g5
sg16
I0
sg17
I7402535
sg18
I12574172
sg19
g5
sg20
g5
sg21
g5
sg22
I2041016
sg23
I94941
sg24
I249787
sg25
I5266578
ssS'PEREIRA PAULO V. FERRAZ'
p210
(dp211
g3
g5
sg4
g5
sg6
I27942
sg7
I00
sg8
I-101250
sg9
g5
sg10
g5
sg11
I0
sg12
g5
sg13
g5
sg14
g5
sg15
I101250
sg16
I0
sg17
I0
sg18
I0
sg19
g5
sg20
g5
sg21
g5
sg22
g5
sg23
I0
sg24
I27942
sg25
I0
ssS'STABLER FRANK'
p212
(dp213
g3
g5
sg4
g5
sg6
I16514
sg7
I00
sg8
g5
sg9
g5
sg10
g5
sg11
I0
sg12
g5
sg13
g5
sg14
I356071
sg15
g5
sg16
I0
sg17
I751236
sg18
I511734
sg19
I500000
sg20
g5
sg21
g5
sg22
I511734
sg23
I239502
sg24
I1112087
sg25
I0
ssS'SKILLING JEFFREY K'
p214
(dp215
g3
I3627
sg4
g5
sg6
I29336
sg7
I01
sg8
g5
sg9
I1920000
sg10
g5
sg11
I2042
sg12
g5
sg13
I108
sg14
I22122
sg15
g5
sg16
I17730106072
sg17
I27204930
sg18
I45343672
sg19
I5600000
sg20
I88
sg21
I30
sg22
I6843672
sg23
I1111258
sg24
I8682716
sg25
I19250000
ssS'BLAKE JR. NORMAN P'
p216
(dp217
g3
g5
sg4
g5
sg6
I1279
sg7
I00
sg8
I-113784
sg9
g5
sg10
g5
sg11
I0
sg12
g5
sg13
g5
sg14
g5
sg15
I113784
sg16
I0
sg17
I0
sg18
I0
sg19
g5
sg20
g5
sg21
g5
sg22
g5
sg23
I0
sg24
I1279
sg25
I0
ssS'SHERRICK JEFFREY B'
p218
(dp219
g3
I613
sg4
g5
sg6
g5
sg7
I00
sg8
g5
sg9
g5
sg10
g5
sg11
I583
sg12
g5
sg13
I25
sg14
g5
sg15
g5
sg16
I0
sg17
I1832468
sg18
I3258937
sg19
g5
sg20
I39
sg21
I18
sg22
I405999
sg23
I0
sg24
I0
sg25
I1426469
ssS'PRENTICE JAMES'
p220
(dp221
g3
g5
sg4
I564348
sg6
g5
sg7
I00
sg8
g5
sg9
g5
sg10
g5
sg11
I0
sg12
g5
sg13
g5
sg14
g5
sg15
g5
sg16
I0
sg17
I1095040
sg18
I1981271
sg19
g5
sg20
g5
sg21
g5
sg22
I208809
sg23
I0
sg24
I564348
sg25
I886231
ssS'GRAY RODNEY'
p222
(dp223
g3
g5
sg4
I93585
sg6
g5
sg7
I00
sg8
g5
sg9
I365625
sg10
g5
sg11
I0
sg12
g5
sg13
g5
sg14
I680833
sg15
g5
sg16
I0
sg17
I6615
sg18
I0
sg19
g5
sg20
g5
sg21
g5
sg22
g5
sg23
I6615
sg24
I1146658
sg25
I0
ssS'PICKERING MARK R'
p224
(dp225
g3
I898
sg4
g5
sg6
I31653
sg7
I00
sg8
g5
sg9
g5
sg10
g5
sg11
I728
sg12
I400000
sg13
I67
sg14
g5
sg15
g5
sg16
I1009510320
sg17
I683835
sg18
I57596
sg19
I300000
sg20
I7
sg21
I0
sg22
g5
sg23
I655037
sg24
I1386690
sg25
I28798
ssS'NOLES JAMES L'
p226
(dp227
g3
g5
sg4
I774401
sg6
g5
sg7
I00
sg8
g5
sg9
g5
sg10
I-94556
sg11
I0
sg12
g5
sg13
g5
sg14
g5
sg15
g5
sg16
I0
sg17
I368705
sg18
I368705
sg19
g5
sg20
g5
sg21
g5
sg22
I463261
sg23
I0
sg24
I774401
sg25
I0
ssS'KEAN STEVEN J'
p228
(dp229
g3
I12754
sg4
g5
sg6
I41953
sg7
I00
sg8
g5
sg9
I300000
sg10
g5
sg11
I3639
sg12
g5
sg13
I6759
sg14
I1231
sg15
g5
sg16
I6359232558
sg17
I6557980
sg18
I8175690
sg19
I1000000
sg20
I140
sg21
I387
sg22
I4131594
sg23
I404338
sg24
I1747522
sg25
I2022048
ssS'FOWLER PEGGY'
p230
(dp231
g3
I517
sg4
g5
sg6
g5
sg7
I00
sg8
g5
sg9
g5
sg10
g5
sg11
I10
sg12
g5
sg13
I36
sg14
g5
sg15
g5
sg16
I0
sg17
I1884748
sg18
I3209326
sg19
g5
sg20
I0
sg21
I0
sg22
I560170
sg23
I0
sg24
I0
sg25
I1324578
ssS'WASAFF GEORGE'
p232
(dp233
g3
I400
sg4
I831299
sg6
g5
sg7
I00
sg8
I-583325
sg9
I200000
sg10
g5
sg11
I337
sg12
g5
sg13
I30
sg14
I1425
sg15
g5
sg16
I348591115
sg17
I2316423
sg18
I3724687
sg19
I325000
sg20
I22
sg21
I7
sg22
I388167
sg23
I259996
sg24
I1034395
sg25
I1668260
ssS'WHITE JR THOMAS E'
p234
(dp235
g3
g5
sg4
g5
sg6
I81353
sg7
I00
sg8
g5
sg9
g5
sg10
g5
sg11
I0
sg12
g5
sg13
g5
sg14
I1085463
sg15
g5
sg16
I0
sg17
I15461666
sg18
I16441172
sg19
I450000
sg20
g5
sg21
g5
sg22
I13847074
sg23
I317543
sg24
I1934359
sg25
I1297049
ssS'CHRISTODOULOU DIOMEDES'
p236
(dp237
g3
g5
sg4
g5
sg6
g5
sg7
I00
sg8
g5
sg9
g5
sg10
g5
sg11
I0
sg12
g5
sg13
g5
sg14
g5
sg15
g5
sg16
I0
sg17
I6077885
sg18
I11205040
sg19
g5
sg20
g5
sg21
g5
sg22
I950730
sg23
I0
sg24
I0
sg25
I5127155
ssS'ALLEN PHILLIP K'
p238
(dp239
g3
I2902
sg4
I2869717
sg6
I13868
sg7
I00
sg8
I-3081055
sg9
I304805
sg10
I-126027
sg11
I1407
sg12
g5
sg13
I2195
sg14
I152
sg15
g5
sg16
I6309609894
sg17
I1931496
sg18
I3459082
sg19
I4175000
sg20
I47
sg21
I65
sg22
I126027
sg23
I201955
sg24
I4484442
sg25
I1729541
ssS'SHARP VICTORIA T'
p240
(dp241
g3
I3136
sg4
I187469
sg6
I116337
sg7
I00
sg8
g5
sg9
I422158
sg10
g5
sg11
I2477
sg12
g5
sg13
I136
sg14
I2401
sg15
g5
sg16
I3905017747
sg17
I742282
sg18
I775209
sg19
I600000
sg20
I24
sg21
I6
sg22
I213063
sg23
I248146
sg24
I1576511
sg25
I281073
ssS'JAEDICKE ROBERT'
p242
(dp243
g3
g5
sg4
g5
sg6
g5
sg7
I00
sg8
I-25000
sg9
g5
sg10
I-44093
sg11
I0
sg12
g5
sg13
g5
sg14
g5
sg15
I108750
sg16
I0
sg17
I431750
sg18
I863500
sg19
g5
sg20
g5
sg21
g5
sg22
I44093
sg23
I0
sg24
I83750
sg25
I431750
ssS'WINOKUR JR. HERBERT S'
p244
(dp245
g3
g5
sg4
g5
sg6
I1413
sg7
I00
sg8
I-25000
sg9
g5
sg10
g5
sg11
I0
sg12
g5
sg13
g5
sg14
g5
sg15
I108579
sg16
I0
sg17
I0
sg18
I0
sg19
g5
sg20
g5
sg21
g5
sg22
g5
sg23
I0
sg24
I84992
sg25
I0
ssS'BROWN MICHAEL'
p246
(dp247
g3
I1486
sg4
g5
sg6
I49288
sg7
I00
sg8
g5
sg9
g5
sg10
g5
sg11
I761
sg12
g5
sg13
I41
sg14
g5
sg15
g5
sg16
I37508168
sg17
I0
sg18
I0
sg19
g5
sg20
I13
sg21
I1
sg22
g5
sg23
I0
sg24
I49288
sg25
I0
ssS'BADUM JAMES P'
p248
(dp249
g3
g5
sg4
I178980
sg6
I3486
sg7
I00
sg8
g5
sg9
g5
sg10
g5
sg11
I0
sg12
g5
sg13
g5
sg14
g5
sg15
g5
sg16
I0
sg17
I257817
sg18
I515634
sg19
g5
sg20
g5
sg21
g5
sg22
g5
sg23
I0
sg24
I182466
sg25
I257817
ssS'HUGHES JAMES A'
p250
(dp251
g3
I719
sg4
g5
sg6
g5
sg7
I00
sg8
g5
sg9
g5
sg10
g5
sg11
I589
sg12
g5
sg13
I34
sg14
g5
sg15
g5
sg16
I0
sg17
I1118394
sg18
I1873360
sg19
g5
sg20
I35
sg21
I5
sg22
I363428
sg23
I0
sg24
I0
sg25
I754966
ssS'REYNOLDS LAWRENCE'
p252
(dp253
g3
g5
sg4
I51365
sg6
I8409
sg7
I00
sg8
I-200000
sg9
I156250
sg10
I-140264
sg11
I0
sg12
g5
sg13
g5
sg14
I202052
sg15
g5
sg16
I0
sg17
I4298290
sg18
I8382563
sg19
I100000
sg20
g5
sg21
g5
sg22
I201483
sg23
I76399
sg24
I394475
sg25
I4160672
ssS'DIMICHELE RICHARD G'
p254
(dp255
g3
g5
sg4
g5
sg6
I35812
sg7
I00
sg8
g5
sg9
I694862
sg10
g5
sg11
I0
sg12
g5
sg13
g5
sg14
I374689
sg15
g5
sg16
I0
sg17
I8580570
sg18
I16509537
sg19
I1000000
sg20
g5
sg21
g5
sg22
I126027
sg23
I262788
sg24
I2368151
sg25
I8191755
ssS'BHATNAGAR SANJAY'
p256
(dp257
g3
I523
sg4
g5
sg6
g5
sg7
I00
sg8
g5
sg9
g5
sg10
I15456290
sg11
I463
sg12
g5
sg13
I29
sg14
I137864
sg15
I137864
sg16
I7156262270
sg17
I0
sg18
I2604490
sg19
g5
sg20
I0
sg21
I1
sg22
I-2604490
sg23
I0
sg24
I15456290
sg25
I2604490
ssS'CARTER REBECCA C'
p258
(dp259
g3
I312
sg4
g5
sg6
g5
sg7
I00
sg8
I-159792
sg9
I75000
sg10
I-307301
sg11
I196
sg12
g5
sg13
I15
sg14
I540
sg15
g5
sg16
I93601172
sg17
I261809
sg18
I0
sg19
I300000
sg20
I29
sg21
I7
sg22
I307301
sg23
I261809
sg24
I477557
sg25
I0
ssS'BUCHANAN HAROLD G'
p260
(dp261
g3
I1088
sg4
g5
sg6
I600
sg7
I00
sg8
g5
sg9
I304805
sg10
g5
sg11
I23
sg12
g5
sg13
I125
sg14
I1215
sg15
g5
sg16
I24256651
sg17
I1262522
sg18
I1839969
sg19
I500000
sg20
I0
sg21
I0
sg22
I189041
sg23
I248017
sg24
I1054637
sg25
I825464
ssS'YEAP SOON'
p262
(dp263
g3
g5
sg4
g5
sg6
I55097
sg7
I00
sg8
g5
sg9
g5
sg10
g5
sg11
I0
sg12
g5
sg13
g5
sg14
g5
sg15
g5
sg16
I0
sg17
I192758
sg18
I385516
sg19
g5
sg20
g5
sg21
g5
sg22
g5
sg23
I0
sg24
I55097
sg25
I192758
ssS'MURRAY JULIA H'
p264
(dp265
g3
I2192
sg4
g5
sg6
I57580
sg7
I00
sg8
g5
sg9
I125000
sg10
g5
sg11
I395
sg12
g5
sg13
I45
sg14
I330
sg15
g5
sg16
I320816630
sg17
I826745
sg18
I997939
sg19
I400000
sg20
I11
sg21
I2
sg22
I196983
sg23
I229284
sg24
I812194
sg25
I400478
ssS'GARLAND C KEVIN'
p266
(dp267
g3
I209
sg4
g5
sg6
I48405
sg7
I00
sg8
g5
sg9
I375304
sg10
g5
sg11
I178
sg12
g5
sg13
I44
sg14
I60814
sg15
g5
sg16
I278831482
sg17
I1128099
sg18
I1532399
sg19
I850000
sg20
I10
sg21
I27
sg22
I259907
sg23
I231946
sg24
I1566469
sg25
I636246
ssS'DODSON KEITH'
p268
(dp269
g3
I176
sg4
g5
sg6
I28164
sg7
I00
sg8
g5
sg9
g5
sg10
g5
sg11
I114
sg12
g5
sg13
I14
sg14
I774
sg15
g5
sg16
I36473274
sg17
I221003
sg18
I0
sg19
I70000
sg20
I10
sg21
I3
sg22
g5
sg23
I221003
sg24
I319941
sg25
I0
ssS'YEAGER F SCOTT'
p270
(dp271
g3
g5
sg4
g5
sg6
I53947
sg7
I01
sg8
g5
sg9
g5
sg10
g5
sg11
I0
sg12
g5
sg13
g5
sg14
I147950
sg15
g5
sg16
I0
sg17
I12043161
sg18
I20193310
sg19
g5
sg20
g5
sg21
g5
sg22
I3576206
sg23
I158403
sg24
I360300
sg25
I8308552
ssS'HIRKO JOSEPH'
p272
(dp273
g3
g5
sg4
I10259
sg6
I77978
sg7
I01
sg8
g5
sg9
g5
sg10
g5
sg11
I0
sg12
g5
sg13
g5
sg14
I2856
sg15
g5
sg16
I0
sg17
I30766064
sg18
I61532128
sg19
g5
sg20
g5
sg21
g5
sg22
g5
sg23
I0
sg24
I91093
sg25
I30766064
ssS'DIETRICH JANET R'
p274
(dp275
g3
I2572
sg4
g5
sg6
I3475
sg7
I00
sg8
g5
sg9
I556416
sg10
g5
sg11
I1902
sg12
g5
sg13
I63
sg14
I473
sg15
g5
sg16
I2682702528
sg17
I2115187
sg18
I3415106
sg19
I600000
sg20
I305
sg21
I14
sg22
I315068
sg23
I250100
sg24
I1410464
sg25
I1550019
ssS'DERRICK JR. JAMES V'
p276
(dp277
g3
I2181
sg4
g5
sg6
I51124
sg7
I00
sg8
I-1284000
sg9
I484000
sg10
I-1787380
sg11
I1401
sg12
g5
sg13
I909
sg14
I7482
sg15
g5
sg16
I771924381
sg17
I9324288
sg18
I17663826
sg19
I800000
sg20
I64
sg21
I20
sg22
I1787380
sg23
I492375
sg24
I550981
sg25
I8831913
ssS'FREVERT MARK A'
p278
(dp279
g3
I3275
sg4
I6426990
sg6
I86987
sg7
I00
sg8
I-3367011
sg9
I1617011
sg10
g5
sg11
I2979
sg12
I2000000
sg13
I21
sg14
I7427621
sg15
g5
sg16
I51395286870
sg17
I15683117
sg18
I25055703
sg19
I2000000
sg20
I242
sg21
I6
sg22
I4188667
sg23
I1060932
sg24
I17252530
sg25
I10433518
ssS'PAI LOU L'
p280
(dp281
g3
g5
sg4
g5
sg6
I32047
sg7
I00
sg8
g5
sg9
g5
sg10
g5
sg11
I0
sg12
g5
sg13
g5
sg14
I1829457
sg15
g5
sg16
I0
sg17
I24079809
sg18
I39182097
sg19
I1000000
sg20
g5
sg21
g5
sg22
I8453763
sg23
I261879
sg24
I3123383
sg25
I15364167
ssS'BAY FRANKLIN R'
p282
(dp283
g3
g5
sg4
I260455
sg6
I129142
sg7
I00
sg8
I-201641
sg9
g5
sg10
I-82782
sg11
I0
sg12
g5
sg13
g5
sg14
I69
sg15
g5
sg16
I0
sg17
I302685
sg18
I63014
sg19
I400000
sg20
g5
sg21
g5
sg22
I145796
sg23
I239671
sg24
I827696
sg25
I0
ssS'HAYSLETT RODERICK J'
p284
(dp285
g3
I2649
sg4
g5
sg6
g5
sg7
I00
sg8
g5
sg9
g5
sg10
g5
sg11
I571
sg12
g5
sg13
I1061
sg14
g5
sg15
g5
sg16
I0
sg17
I346663
sg18
I346663
sg19
g5
sg20
I35
sg21
I38
sg22
I346663
sg23
I0
sg24
I0
sg25
I0
ssS'FUGH JOHN L'
p286
(dp287
g3
g5
sg4
I50591
sg6
g5
sg7
I00
sg8
g5
sg9
g5
sg10
g5
sg11
I0
sg12
g5
sg13
g5
sg14
g5
sg15
g5
sg16
I0
sg17
I176378
sg18
I352756
sg19
g5
sg20
g5
sg21
g5
sg22
g5
sg23
I0
sg24
I50591
sg25
I176378
ssS'FALLON JAMES B'
p288
(dp289
g3
I1755
sg4
g5
sg6
I95924
sg7
I00
sg8
g5
sg9
I374347
sg10
g5
sg11
I1604
sg12
g5
sg13
I75
sg14
I401481
sg15
g5
sg16
I5896849360
sg17
I2636987
sg18
I3272656
sg19
I2500000
sg20
I42
sg21
I37
sg22
I1392142
sg23
I304588
sg24
I3676340
sg25
I940257
ssS'KOENIG MARK E'
p290
(dp291
g3
I2374
sg4
g5
sg6
I127017
sg7
I01
sg8
g5
sg9
I300000
sg10
g5
sg11
I2271
sg12
g5
sg13
I61
sg14
I150458
sg15
g5
sg16
I3605033091
sg17
I2230001
sg18
I2591792
sg19
I700000
sg20
I53
sg21
I15
sg22
I1248318
sg23
I309946
sg24
I1587421
sg25
I671737
ssS'SAVAGE FRANK'
p292
(dp293
g3
g5
sg4
g5
sg6
g5
sg7
I00
sg8
I-121284
sg9
g5
sg10
g5
sg11
I0
sg12
g5
sg13
g5
sg14
g5
sg15
I125034
sg16
I0
sg17
I0
sg18
I0
sg19
g5
sg20
g5
sg21
g5
sg22
g5
sg23
I0
sg24
I3750
sg25
I0
ssS'IZZO LAWRENCE L'
p294
(dp295
g3
I496
sg4
g5
sg6
I28093
sg7
I00
sg8
g5
sg9
I312500
sg10
g5
sg11
I437
sg12
g5
sg13
I19
sg14
I1553729
sg15
g5
sg16
I865083452
sg17
I5905254
sg18
I7985152
sg19
g5
sg20
I28
sg21
I5
sg22
I3654808
sg23
I85274
sg24
I1979596
sg25
I2165172
ssS'TILNEY ELIZABETH A'
p296
(dp297
g3
I460
sg4
g5
sg6
g5
sg7
I00
sg8
I-575000
sg9
I275000
sg10
g5
sg11
I379
sg12
g5
sg13
I19
sg14
I152055
sg15
g5
sg16
I151369947
sg17
I1415380
sg18
I1759292
sg19
I300000
sg20
I10
sg21
I11
sg22
I576792
sg23
I247338
sg24
I399393
sg25
I591250
ssS'MARTIN AMANDA K'
p298
(dp299
g3
I1522
sg4
I85430
sg6
I8211
sg7
I00
sg8
g5
sg9
I5145434
sg10
g5
sg11
I477
sg12
g5
sg13
I230
sg14
I2818454
sg15
g5
sg16
I4010146632
sg17
I2419793
sg18
I4140612
sg19
g5
sg20
I8
sg21
I0
sg22
g5
sg23
I349487
sg24
I8407016
sg25
I2070306
ssS'BUY RICHARD B'
p300
(dp301
g3
I3523
sg4
I649584
sg6
g5
sg7
I00
sg8
I-694862
sg9
I769862
sg10
g5
sg11
I2333
sg12
g5
sg13
I1053
sg14
I400572
sg15
g5
sg16
I5495852766
sg17
I3775016
sg18
I5987283
sg19
I900000
sg20
I156
sg21
I71
sg22
I901657
sg23
I330546
sg24
I2355702
sg25
I2542813
ssS'GRAMM WENDY L'
p302
(dp303
g3
g5
sg4
g5
sg6
g5
sg7
I00
sg8
g5
sg9
g5
sg10
g5
sg11
I0
sg12
g5
sg13
g5
sg14
g5
sg15
I119292
sg16
I0
sg17
I0
sg18
I0
sg19
g5
sg20
g5
sg21
g5
sg22
g5
sg23
I0
sg24
I119292
sg25
I0
ssS'CAUSEY RICHARD A'
p304
(dp305
g3
I1892
sg4
g5
sg6
I30674
sg7
I01
sg8
I-235000
sg9
I350000
sg10
g5
sg11
I1585
sg12
g5
sg13
I49
sg14
I307895
sg15
g5
sg16
I2961981430
sg17
I2917252
sg18
I2502063
sg19
I1000000
sg20
I58
sg21
I12
sg22
I2502063
sg23
I415189
sg24
I1868758
sg25
I0
ssS'TAYLOR MITCHELL S'
p306
(dp307
g3
I533
sg4
I227449
sg6
g5
sg7
I00
sg8
g5
sg9
g5
sg10
g5
sg11
I300
sg12
g5
sg13
I29
sg14
g5
sg15
g5
sg16
I327798900
sg17
I4010262
sg18
I6926298
sg19
I600000
sg20
I0
sg21
I0
sg22
I563798
sg23
I265214
sg24
I1092663
sg25
I3181250
ssS'DONAHUE JR JEFFREY M'
p308
(dp309
g3
I865
sg4
g5
sg6
I96268
sg7
I00
sg8
I-300000
sg9
g5
sg10
g5
sg11
I772
sg12
g5
sg13
I22
sg14
I891
sg15
g5
sg16
I676086720
sg17
I1359589
sg18
I1846908
sg19
I800000
sg20
I188
sg21
I11
sg22
I315068
sg23
I278601
sg24
I875760
sg25
I765920
ssS'GLISAN JR BEN F'
p310
(dp311
g3
I873
sg4
g5
sg6
I125978
sg7
I01
sg8
g5
sg9
I71023
sg10
g5
sg11
I874
sg12
g5
sg13
I16
sg14
I200308
sg15
g5
sg16
I1111976216
sg17
I1053521
sg18
I1163274
sg19
I600000
sg20
I52
sg21
I6
sg22
I393818
sg23
I274975
sg24
I1272284
sg25
I384728
ss.